; ModuleID = 'source-C-CXX/27/1823.c'
source_filename = "source-C-CXX/27/1823.c"
target datalayout = "e-m:e-p270:32:32-p271:32:32-p272:64:64-i64:64-f80:128-n8:16:32:64-S128"
target triple = "x86_64-pc-linux-gnu"

@.str = private unnamed_addr constant [4 x i8] c"%d,\00", align 1
@.str.1 = private unnamed_addr constant [3 x i8] c"%d\00", align 1

; Function Attrs: nounwind sspstrong uwtable
define dso_local i32 @main() local_unnamed_addr #0 {
  %1 = alloca [3001 x i8], align 16
  %2 = getelementptr inbounds [3001 x i8], [3001 x i8]* %1, i64 0, i64 0
  call void @llvm.lifetime.start.p0i8(i64 3001, i8* nonnull %2) #5
  %3 = call i32 (i8*, ...) bitcast (i32 (...)* @gets to i32 (i8*, ...)*)(i8* nonnull %2) #5
  %4 = call i64 @strlen(i8* noundef nonnull %2) #6
  %5 = trunc i64 %4 to i32
  %6 = icmp sgt i32 %5, 0
  br i1 %6, label %7, label %34

7:                                                ; preds = %0
  %8 = add i64 %4, 4294967295
  %9 = and i64 %8, 4294967295
  %10 = and i64 %4, 4294967295
  br label %11

11:                                               ; preds = %7, %30
  %12 = phi i64 [ 0, %7 ], [ %32, %30 ]
  %13 = phi i32 [ 0, %7 ], [ %31, %30 ]
  %14 = getelementptr inbounds [3001 x i8], [3001 x i8]* %1, i64 0, i64 %12
  %15 = load i8, i8* %14, align 1, !tbaa !5
  %16 = icmp eq i8 %15, 32
  %17 = icmp ne i32 %13, 0
  %18 = select i1 %16, i1 %17, i1 false
  br i1 %18, label %19, label %21

19:                                               ; preds = %11
  %20 = call i32 (i8*, ...) @printf(i8* nonnull dereferenceable(1) getelementptr inbounds ([4 x i8], [4 x i8]* @.str, i64 0, i64 0), i32 %13)
  br label %30

21:                                               ; preds = %11
  %22 = icmp eq i64 %12, %9
  br i1 %22, label %23, label %26

23:                                               ; preds = %21
  %24 = add nsw i32 %13, 1
  %25 = call i32 (i8*, ...) @printf(i8* nonnull dereferenceable(1) getelementptr inbounds ([3 x i8], [3 x i8]* @.str.1, i64 0, i64 0), i32 %24)
  br label %30

26:                                               ; preds = %21
  %27 = xor i1 %16, true
  %28 = zext i1 %27 to i32
  %29 = add nsw i32 %13, %28
  br label %30

30:                                               ; preds = %26, %19, %23
  %31 = phi i32 [ 0, %19 ], [ 0, %23 ], [ %29, %26 ]
  %32 = add nuw nsw i64 %12, 1
  %33 = icmp eq i64 %32, %10
  br i1 %33, label %34, label %11, !llvm.loop !8

34:                                               ; preds = %30, %0
  call void @llvm.lifetime.end.p0i8(i64 3001, i8* nonnull %2) #5
  ret i32 0
}

; Function Attrs: argmemonly mustprogress nofree nosync nounwind willreturn
declare void @llvm.lifetime.start.p0i8(i64 immarg, i8* nocapture) #1

declare i32 @gets(...) local_unnamed_addr #2

; Function Attrs: argmemonly mustprogress nofree nounwind readonly willreturn
declare i64 @strlen(i8* nocapture) local_unnamed_addr #3

; Function Attrs: nofree nounwind
declare noundef i32 @printf(i8* nocapture noundef readonly, ...) local_unnamed_addr #4

; Function Attrs: argmemonly mustprogress nofree nosync nounwind willreturn
declare void @llvm.lifetime.end.p0i8(i64 immarg, i8* nocapture) #1


!llvm.module.flags = !{!0, !1, !2, !3}
!llvm.ident = !{!4}

!0 = !{i32 1, !"wchar_size", i32 4}
!1 = !{i32 7, !"PIC Level", i32 2}
!2 = !{i32 7, !"PIE Level", i32 2}
!3 = !{i32 7, !"uwtable", i32 1}
!4 = !{!"clang version 13.0.0"}
!5 = !{!6, !6, i64 0}
!6 = !{!"omnipotent char", !7, i64 0}
!7 = !{!"Simple C/C++ TBAA"}
!8 = distinct !{!8, !9}
!9 = !{!"llvm.loop.mustprogress"}
